; ModuleID = '16/1276.c'
source_filename = "16/1276.c"
target datalayout = "e-m:e-p270:32:32-p271:32:32-p272:64:64-i64:64-f80:128-n8:16:32:64-S128"
target triple = "x86_64-pc-linux-gnu"

@.str = private unnamed_addr constant [3 x i8] c"%d\00", align 1

; Function Attrs: noinline nounwind uwtable
define dso_local i32 @main() #0 {
  %1 = alloca i32, align 4
  %2 = alloca i32, align 4
  %3 = alloca i32, align 4
  %4 = alloca i32, align 4
  %5 = alloca [10 x i32], align 16
  store i32 0, i32* %1, align 4
  %6 = call i32 (i8*, ...) @__isoc99_scanf(i8* getelementptr inbounds ([3 x i8], [3 x i8]* @.str, i64 0, i64 0), i32* %2)
  %7 = load i32, i32* %2, align 4
  %8 = icmp sge i32 %7, 10000
  br i1 %8, label %9, label %10

9:                                                ; preds = %0
  store i32 5, i32* %3, align 4
  br label %26

10:                                               ; preds = %0
  %11 = load i32, i32* %2, align 4
  %12 = icmp sge i32 %11, 1000
  br i1 %12, label %13, label %14

13:                                               ; preds = %10
  store i32 4, i32* %3, align 4
  br label %25

14:                                               ; preds = %10
  %15 = load i32, i32* %2, align 4
  %16 = icmp sge i32 %15, 100
  br i1 %16, label %17, label %18

17:                                               ; preds = %14
  store i32 3, i32* %3, align 4
  br label %24

18:                                               ; preds = %14
  %19 = load i32, i32* %2, align 4
  %20 = icmp sge i32 %19, 10
  br i1 %20, label %21, label %22

21:                                               ; preds = %18
  store i32 2, i32* %3, align 4
  br label %23

22:                                               ; preds = %18
  store i32 1, i32* %3, align 4
  br label %23

23:                                               ; preds = %22, %21
  br label %24

24:                                               ; preds = %23, %17
  br label %25

25:                                               ; preds = %24, %13
  br label %26

26:                                               ; preds = %25, %9
  store i32 1, i32* %4, align 4
  br label %27

27:                                               ; preds = %59, %26
  %28 = load i32, i32* %4, align 4
  %29 = load i32, i32* %3, align 4
  %30 = icmp sle i32 %28, %29
  br i1 %30, label %31, label %62

31:                                               ; preds = %27
  %32 = load i32, i32* %2, align 4
  %33 = sitofp i32 %32 to double
  %34 = load i32, i32* %3, align 4
  %35 = load i32, i32* %4, align 4
  %36 = sub nsw i32 %34, %35
  %37 = sitofp i32 %36 to double
  %38 = call double @pow(double 1.000000e+01, double %37) #3
  %39 = fdiv double %33, %38
  %40 = fptosi double %39 to i32
  %41 = load i32, i32* %4, align 4
  %42 = sext i32 %41 to i64
  %43 = getelementptr inbounds [10 x i32], [10 x i32]* %5, i64 0, i64 %42
  store i32 %40, i32* %43, align 4
  %44 = load i32, i32* %2, align 4
  %45 = sitofp i32 %44 to double
  %46 = load i32, i32* %4, align 4
  %47 = sext i32 %46 to i64
  %48 = getelementptr inbounds [10 x i32], [10 x i32]* %5, i64 0, i64 %47
  %49 = load i32, i32* %48, align 4
  %50 = sitofp i32 %49 to double
  %51 = load i32, i32* %3, align 4
  %52 = load i32, i32* %4, align 4
  %53 = sub nsw i32 %51, %52
  %54 = sitofp i32 %53 to double
  %55 = call double @pow(double 1.000000e+01, double %54) #3
  %56 = fmul double %50, %55
  %57 = fsub double %45, %56
  %58 = fptosi double %57 to i32
  store i32 %58, i32* %2, align 4
  br label %59

59:                                               ; preds = %31
  %60 = load i32, i32* %4, align 4
  %61 = add nsw i32 %60, 1
  store i32 %61, i32* %4, align 4
  br label %27

62:                                               ; preds = %27
  store i32 1, i32* %4, align 4
  br label %63

63:                                               ; preds = %76, %62
  %64 = load i32, i32* %4, align 4
  %65 = load i32, i32* %3, align 4
  %66 = icmp sle i32 %64, %65
  br i1 %66, label %67, label %79

67:                                               ; preds = %63
  %68 = load i32, i32* %3, align 4
  %69 = load i32, i32* %4, align 4
  %70 = sub nsw i32 %68, %69
  %71 = add nsw i32 %70, 1
  %72 = sext i32 %71 to i64
  %73 = getelementptr inbounds [10 x i32], [10 x i32]* %5, i64 0, i64 %72
  %74 = load i32, i32* %73, align 4
  %75 = call i32 (i8*, ...) @printf(i8* getelementptr inbounds ([3 x i8], [3 x i8]* @.str, i64 0, i64 0), i32 %74)
  br label %76

76:                                               ; preds = %67
  %77 = load i32, i32* %4, align 4
  %78 = add nsw i32 %77, 1
  store i32 %78, i32* %4, align 4
  br label %63

79:                                               ; preds = %63
  %80 = load i32, i32* %1, align 4
  ret i32 %80
}

declare dso_local i32 @__isoc99_scanf(i8*, ...) #1

; Function Attrs: nounwind
declare dso_local double @pow(double, double) #2

declare dso_local i32 @printf(i8*, ...) #1


!llvm.module.flags = !{!0}
!llvm.ident = !{!1}

!0 = !{i32 1, !"wchar_size", i32 4}
!1 = !{!"clang version 10.0.0-4ubuntu1 "}
