; ModuleID = 'source-C-CXX/15/1276.c'
source_filename = "source-C-CXX/15/1276.c"
target datalayout = "e-m:e-p270:32:32-p271:32:32-p272:64:64-i64:64-f80:128-n8:16:32:64-S128"
target triple = "x86_64-pc-linux-gnu"

@.str = private unnamed_addr constant [3 x i8] c"%d\00", align 1

; Function Attrs: nofree nounwind sspstrong uwtable
define dso_local i32 @main() local_unnamed_addr #0 {
  %1 = alloca i32, align 4
  %2 = alloca [10 x i32], align 16
  %3 = bitcast i32* %1 to i8*
  call void @llvm.lifetime.start.p0i8(i64 4, i8* nonnull %3) #4
  %4 = bitcast [10 x i32]* %2 to i8*
  call void @llvm.lifetime.start.p0i8(i64 40, i8* nonnull %4) #4
  %5 = call i32 (i8*, ...) @__isoc99_scanf(i8* getelementptr inbounds ([3 x i8], [3 x i8]* @.str, i64 0, i64 0), i32* nonnull %1)
  %6 = load i32, i32* %1, align 4, !tbaa !5
  %7 = icmp sgt i32 %6, 9999
  br i1 %7, label %15, label %8

8:                                                ; preds = %0
  %9 = icmp sgt i32 %6, 999
  br i1 %9, label %15, label %10

10:                                               ; preds = %8
  %11 = icmp sgt i32 %6, 99
  br i1 %11, label %15, label %12

12:                                               ; preds = %10
  %13 = icmp sgt i32 %6, 9
  %14 = select i1 %13, i32 2, i32 1
  br label %15

15:                                               ; preds = %12, %10, %8, %0
  %16 = phi i32 [ 5, %0 ], [ 4, %8 ], [ 3, %10 ], [ %14, %12 ]
  %17 = add nuw nsw i32 %16, 1
  %18 = zext i32 %17 to i64
  br label %21

19:                                               ; preds = %21
  %20 = zext i32 %17 to i64
  br label %41

21:                                               ; preds = %15, %21
  %22 = phi i32 [ %6, %15 ], [ %38, %21 ]
  %23 = phi i64 [ 1, %15 ], [ %39, %21 ]
  %24 = sitofp i32 %22 to double
  %25 = trunc i64 %23 to i32
  %26 = sub i32 %16, %25
  %27 = sitofp i32 %26 to double
  %28 = call double @pow(double 1.000000e+01, double %27) #4
  %29 = fdiv double %24, %28
  %30 = fptosi double %29 to i32
  %31 = getelementptr inbounds [10 x i32], [10 x i32]* %2, i64 0, i64 %23
  store i32 %30, i32* %31, align 4, !tbaa !5
  %32 = load i32, i32* %1, align 4, !tbaa !5
  %33 = sitofp i32 %32 to double
  %34 = sitofp i32 %30 to double
  %35 = call double @pow(double 1.000000e+01, double %27) #4
  %36 = fmul double %35, %34
  %37 = fsub double %33, %36
  %38 = fptosi double %37 to i32
  store i32 %38, i32* %1, align 4, !tbaa !5
  %39 = add nuw nsw i64 %23, 1
  %40 = icmp eq i64 %39, %18
  br i1 %40, label %19, label %21, !llvm.loop !9

41:                                               ; preds = %19, %41
  %42 = phi i64 [ 1, %19 ], [ %47, %41 ]
  %43 = sub nsw i64 %20, %42
  %44 = getelementptr inbounds [10 x i32], [10 x i32]* %2, i64 0, i64 %43
  %45 = load i32, i32* %44, align 4, !tbaa !5
  %46 = call i32 (i8*, ...) @printf(i8* nonnull dereferenceable(1) getelementptr inbounds ([3 x i8], [3 x i8]* @.str, i64 0, i64 0), i32 %45)
  %47 = add nuw nsw i64 %42, 1
  %48 = icmp eq i64 %47, %18
  br i1 %48, label %49, label %41, !llvm.loop !11

49:                                               ; preds = %41
  call void @llvm.lifetime.end.p0i8(i64 40, i8* nonnull %4) #4
  call void @llvm.lifetime.end.p0i8(i64 4, i8* nonnull %3) #4
  ret i32 0
}

; Function Attrs: argmemonly mustprogress nofree nosync nounwind willreturn
declare void @llvm.lifetime.start.p0i8(i64 immarg, i8* nocapture) #1

; Function Attrs: nofree nounwind
declare noundef i32 @__isoc99_scanf(i8* nocapture noundef readonly, ...) local_unnamed_addr #2

; Function Attrs: mustprogress nofree nounwind willreturn
declare double @pow(double, double) local_unnamed_addr #3

; Function Attrs: nofree nounwind
declare noundef i32 @printf(i8* nocapture noundef readonly, ...) local_unnamed_addr #2

; Function Attrs: argmemonly mustprogress nofree nosync nounwind willreturn
declare void @llvm.lifetime.end.p0i8(i64 immarg, i8* nocapture) #1


!llvm.module.flags = !{!0, !1, !2, !3}
!llvm.ident = !{!4}

!0 = !{i32 1, !"wchar_size", i32 4}
!1 = !{i32 7, !"PIC Level", i32 2}
!2 = !{i32 7, !"PIE Level", i32 2}
!3 = !{i32 7, !"uwtable", i32 1}
!4 = !{!"clang version 13.0.0"}
!5 = !{!6, !6, i64 0}
!6 = !{!"int", !7, i64 0}
!7 = !{!"omnipotent char", !8, i64 0}
!8 = !{!"Simple C/C++ TBAA"}
!9 = distinct !{!9, !10}
!10 = !{!"llvm.loop.mustprogress"}
!11 = distinct !{!11, !10}
